; Function Attrs: nounwind sspstrong uwtable
define dso_local ptr @qemu_iovec_slice(ptr noundef readonly captures(none) %qiov, i64 noundef %offset, i64 noundef %len, ptr noundef writeonly captures(none) %head, ptr noundef writeonly captures(none) %tail, ptr noundef writeonly captures(none) %niov) local_unnamed_addr #0 {
entry:
  %add = add i64 %len, %offset
  %size = getelementptr inbounds nuw i8, ptr %qiov, i64 32
  %0 = load i64, ptr %size, align 8
  %cmp.not = icmp ugt i64 %add, %0
  br i1 %cmp.not, label %if.else, label %if.end

if.else:                                          ; preds = %entry
  tail call void @__assert_fail(ptr noundef nonnull @.str.8, ptr noundef nonnull @.str.1, i32 noundef 393, ptr noundef nonnull @__PRETTY_FUNCTION__.qemu_iovec_slice) #17
  unreachable

if.end:                                           ; preds = %entry
  %1 = load ptr, ptr %qiov, align 8
  %cmp.not7.i = icmp eq i64 %offset, 0
  br i1 %cmp.not7.i, label %iov_skip_offset.exit, label %land.rhs.i

land.rhs.i:                                       ; preds = %if.end, %while.body.i
  %iov.addr.09.i = phi ptr [ %incdec.ptr.i, %while.body.i ], [ %1, %if.end ]
  %offset.addr.08.i = phi i64 [ %sub.i, %while.body.i ], [ %offset, %if.end ]
  %iov_len.i = getelementptr inbounds nuw i8, ptr %iov.addr.09.i, i64 8
  %2 = load i64, ptr %iov_len.i, align 8
  %cmp1.not.i = icmp ult i64 %offset.addr.08.i, %2
  br i1 %cmp1.not.i, label %iov_skip_offset.exit, label %while.body.i

while.body.i:                                     ; preds = %land.rhs.i
  %sub.i = sub nuw i64 %offset.addr.08.i, %2
  %incdec.ptr.i = getelementptr i8, ptr %iov.addr.09.i, i64 16
  %cmp.not.i = icmp eq i64 %sub.i, 0
  br i1 %cmp.not.i, label %iov_skip_offset.exit, label %land.rhs.i, !llvm.loop !18

iov_skip_offset.exit:                             ; preds = %land.rhs.i, %while.body.i, %if.end
  %offset.addr.0.lcssa.i = phi i64 [ 0, %if.end ], [ %offset.addr.08.i, %land.rhs.i ], [ 0, %while.body.i ]
  %iov.addr.0.lcssa.i = phi ptr [ %1, %if.end ], [ %iov.addr.09.i, %land.rhs.i ], [ %incdec.ptr.i, %while.body.i ]
  store i64 %offset.addr.0.lcssa.i, ptr %head, align 8
  %add2 = add i64 %offset.addr.0.lcssa.i, %len
  %cmp.not7.i15 = icmp eq i64 %add2, 0
  br i1 %cmp.not7.i15, label %iov_skip_offset.exit27.thread, label %land.rhs.i16

land.rhs.i16:                                     ; preds = %iov_skip_offset.exit, %while.body.i21
  %iov.addr.09.i17 = phi ptr [ %incdec.ptr.i23, %while.body.i21 ], [ %iov.addr.0.lcssa.i, %iov_skip_offset.exit ]
  %offset.addr.08.i18 = phi i64 [ %sub.i22, %while.body.i21 ], [ %add2, %iov_skip_offset.exit ]
  %iov_len.i19 = getelementptr inbounds nuw i8, ptr %iov.addr.09.i17, i64 8
  %3 = load i64, ptr %iov_len.i19, align 8
  %cmp1.not.i20 = icmp ult i64 %offset.addr.08.i18, %3
  br i1 %cmp1.not.i20, label %if.then5, label %while.body.i21

while.body.i21:                                   ; preds = %land.rhs.i16
  %sub.i22 = sub nuw i64 %offset.addr.08.i18, %3
  %incdec.ptr.i23 = getelementptr i8, ptr %iov.addr.09.i17, i64 16
  %cmp.not.i24 = icmp eq i64 %sub.i22, 0
  br i1 %cmp.not.i24, label %iov_skip_offset.exit27.thread, label %land.rhs.i16, !llvm.loop !18

iov_skip_offset.exit27.thread:                    ; preds = %while.body.i21, %iov_skip_offset.exit
  %iov.addr.0.lcssa.i26.ph = phi ptr [ %iov.addr.0.lcssa.i, %iov_skip_offset.exit ], [ %incdec.ptr.i23, %while.body.i21 ]
  store i64 0, ptr %tail, align 8
  br label %if.end11

if.then5:                                         ; preds = %land.rhs.i16
  %iov_len.i19.le = getelementptr inbounds nuw i8, ptr %iov.addr.09.i17, i64 8
  store i64 %offset.addr.08.i18, ptr %tail, align 8
  %4 = load i64, ptr %iov_len.i19.le, align 8
  %cmp6 = icmp ult i64 %offset.addr.08.i18, %4
  br i1 %cmp6, label %if.end9, label %if.else8

if.else8:                                         ; preds = %if.then5
  tail call void @__assert_fail(ptr noundef nonnull @.str.9, ptr noundef nonnull @.str.1, i32 noundef 399, ptr noundef nonnull @__PRETTY_FUNCTION__.qemu_iovec_slice) #17
  unreachable

if.end9:                                          ; preds = %if.then5
  %sub = sub nuw i64 %4, %offset.addr.08.i18
  store i64 %sub, ptr %tail, align 8
  %incdec.ptr = getelementptr i8, ptr %iov.addr.09.i17, i64 16
  br label %if.end11

if.end11:                                         ; preds = %iov_skip_offset.exit27.thread, %if.end9
  %end_iov.0 = phi ptr [ %incdec.ptr, %if.end9 ], [ %iov.addr.0.lcssa.i26.ph, %iov_skip_offset.exit27.thread ]
  %sub.ptr.lhs.cast = ptrtoint ptr %end_iov.0 to i64
  %sub.ptr.rhs.cast = ptrtoint ptr %iov.addr.0.lcssa.i to i64
  %sub.ptr.sub = sub i64 %sub.ptr.lhs.cast, %sub.ptr.rhs.cast
  %sub.ptr.div = lshr exact i64 %sub.ptr.sub, 4
  %conv = trunc i64 %sub.ptr.div to i32
  store i32 %conv, ptr %niov, align 4
  ret ptr %iov.addr.0.lcssa.i
}